target datalayout = "e-m:e-p270:32:32-p271:32:32-p272:64:64-i64:64-i128:128-f80:128-n8:16:32:64-S128"
target triple = "x86_64-pc-linux-gnu"

%struct.PLpgSQL_type = type { ptr, i32, i32, i16, i8, i8, i32, i8, i32, ptr, ptr, i64 }
%struct.PLpgSQL_rec = type { i32, i32, ptr, i32, i8, i8, ptr, ptr, i32, i32, ptr }
%struct.TypeCacheEntry = type { i32, i32, i16, i8, i8, i8, i8, i32, i32, i32, i32, i32, i32, i32, i32, i32, i32, i32, i32, i32, i32, %struct.FmgrInfo, %struct.FmgrInfo, %struct.FmgrInfo, %struct.FmgrInfo, ptr, i64, ptr, i32, i32, %struct.FmgrInfo, %struct.FmgrInfo, %struct.FmgrInfo, ptr, i32, i32, ptr, i32, ptr, ptr }
%struct.FmgrInfo = type { ptr, i32, i16, i8, i8, i8, ptr, ptr, ptr }

@.str.2 = private unnamed_addr constant [11 x i8] c"plpgsql-18\00", align 1
@.str.4 = private unnamed_addr constant [10 x i8] c"pl_exec.c\00", align 1
@.str.138 = private unnamed_addr constant [25 x i8] c"type %s is not composite\00", align 1
@__func__.revalidate_rectypeid = private unnamed_addr constant [21 x i8] c"revalidate_rectypeid\00", align 1

; Function Attrs: nounwind uwtable
define internal void @revalidate_rectypeid(ptr noundef %0) #0 {
  %2 = alloca ptr, align 8
  %3 = alloca ptr, align 8
  %4 = alloca ptr, align 8
  %5 = alloca i32, align 4
  store ptr %0, ptr %2, align 8
  call void @llvm.lifetime.start.p0(i64 8, ptr %3) #12
  %6 = load ptr, ptr %2, align 8
  %7 = getelementptr inbounds nuw %struct.PLpgSQL_rec, ptr %6, i32 0, i32 7
  %8 = load ptr, ptr %7, align 8
  store ptr %8, ptr %3, align 8
  call void @llvm.lifetime.start.p0(i64 8, ptr %4) #12
  %9 = load ptr, ptr %2, align 8
  %10 = getelementptr inbounds nuw %struct.PLpgSQL_rec, ptr %9, i32 0, i32 8
  %11 = load i32, ptr %10, align 8
  %12 = icmp eq i32 %11, 2249
  br i1 %12, label %13, label %14

13:                                               ; preds = %1
  store i32 1, ptr %5, align 4
  br label %98

14:                                               ; preds = %1
  %15 = load ptr, ptr %3, align 8
  %16 = getelementptr inbounds nuw %struct.PLpgSQL_type, ptr %15, i32 0, i32 10
  %17 = load ptr, ptr %16, align 8
  %18 = icmp ne ptr %17, null
  br i1 %18, label %19, label %35

19:                                               ; preds = %14
  %20 = load ptr, ptr %3, align 8
  %21 = getelementptr inbounds nuw %struct.PLpgSQL_type, ptr %20, i32 0, i32 10
  %22 = load ptr, ptr %21, align 8
  %23 = getelementptr inbounds nuw %struct.TypeCacheEntry, ptr %22, i32 0, i32 26
  %24 = load i64, ptr %23, align 8
  %25 = load ptr, ptr %3, align 8
  %26 = getelementptr inbounds nuw %struct.PLpgSQL_type, ptr %25, i32 0, i32 11
  %27 = load i64, ptr %26, align 8
  %28 = icmp eq i64 %24, %27
  br i1 %28, label %29, label %35

29:                                               ; preds = %19
  %30 = load ptr, ptr %3, align 8
  %31 = getelementptr inbounds nuw %struct.PLpgSQL_type, ptr %30, i32 0, i32 1
  %32 = load i32, ptr %31, align 8
  %33 = load ptr, ptr %2, align 8
  %34 = getelementptr inbounds nuw %struct.PLpgSQL_rec, ptr %33, i32 0, i32 8
  store i32 %32, ptr %34, align 8
  store i32 1, ptr %5, align 4
  br label %98

35:                                               ; preds = %19, %14
  %36 = load ptr, ptr %3, align 8
  %37 = getelementptr inbounds nuw %struct.PLpgSQL_type, ptr %36, i32 0, i32 9
  %38 = load ptr, ptr %37, align 8
  %39 = icmp ne ptr %38, null
  br i1 %39, label %40, label %48

40:                                               ; preds = %35
  %41 = load ptr, ptr %3, align 8
  %42 = getelementptr inbounds nuw %struct.PLpgSQL_type, ptr %41, i32 0, i32 9
  %43 = load ptr, ptr %42, align 8
  %44 = load ptr, ptr %3, align 8
  %45 = getelementptr inbounds nuw %struct.PLpgSQL_type, ptr %44, i32 0, i32 1
  %46 = load ptr, ptr %3, align 8
  %47 = getelementptr inbounds nuw %struct.PLpgSQL_type, ptr %46, i32 0, i32 8
  call void @typenameTypeIdAndMod(ptr noundef null, ptr noundef %43, ptr noundef %45, ptr noundef %47)
  br label %48

48:                                               ; preds = %40, %35
  %49 = load ptr, ptr %3, align 8
  %50 = getelementptr inbounds nuw %struct.PLpgSQL_type, ptr %49, i32 0, i32 1
  %51 = load i32, ptr %50, align 8
  %52 = call ptr @lookup_type_cache(i32 noundef %51, i32 noundef 4352)
  store ptr %52, ptr %4, align 8
  %53 = load ptr, ptr %4, align 8
  %54 = getelementptr inbounds nuw %struct.TypeCacheEntry, ptr %53, i32 0, i32 6
  %55 = load i8, ptr %54, align 1
  %56 = sext i8 %55 to i32
  %57 = icmp eq i32 %56, 100
  br i1 %57, label %58, label %63

58:                                               ; preds = %48
  %59 = load ptr, ptr %4, align 8
  %60 = getelementptr inbounds nuw %struct.TypeCacheEntry, ptr %59, i32 0, i32 34
  %61 = load i32, ptr %60, align 8
  %62 = call ptr @lookup_type_cache(i32 noundef %61, i32 noundef 256)
  store ptr %62, ptr %4, align 8
  br label %63

63:                                               ; preds = %58, %48
  %64 = load ptr, ptr %4, align 8
  %65 = getelementptr inbounds nuw %struct.TypeCacheEntry, ptr %64, i32 0, i32 25
  %66 = load ptr, ptr %65, align 8
  %67 = icmp eq ptr %66, null
  br i1 %67, label %68, label %84

68:                                               ; preds = %63
  br label %69

69:                                               ; preds = %68
  br i1 true, label %70, label %72

70:                                               ; preds = %69
  %71 = call zeroext i1 @errstart_cold(i32 noundef 21, ptr noundef @.str.2) #13
  br i1 %71, label %74, label %81

72:                                               ; preds = %69
  %73 = call zeroext i1 @errstart(i32 noundef 21, ptr noundef @.str.2)
  br i1 %73, label %74, label %81

74:                                               ; preds = %72, %70
  %75 = call i32 @errcode(i32 noundef 151027844)
  %76 = load ptr, ptr %3, align 8
  %77 = getelementptr inbounds nuw %struct.PLpgSQL_type, ptr %76, i32 0, i32 1
  %78 = load i32, ptr %77, align 8
  %79 = call ptr @format_type_be(i32 noundef %78)
  %80 = call i32 (ptr, ...) @errmsg(ptr noundef @.str.138, ptr noundef %79)
  call void @errfinish(ptr noundef @.str.4, i32 noundef 7098, ptr noundef @__func__.revalidate_rectypeid)
  br label %81

81:                                               ; preds = %74, %72, %70
  unreachable

82:                                               ; No predecessors!
  br label %83

83:                                               ; preds = %82
  br label %84

84:                                               ; preds = %83, %63
  %85 = load ptr, ptr %4, align 8
  %86 = load ptr, ptr %3, align 8
  %87 = getelementptr inbounds nuw %struct.PLpgSQL_type, ptr %86, i32 0, i32 10
  store ptr %85, ptr %87, align 8
  %88 = load ptr, ptr %4, align 8
  %89 = getelementptr inbounds nuw %struct.TypeCacheEntry, ptr %88, i32 0, i32 26
  %90 = load i64, ptr %89, align 8
  %91 = load ptr, ptr %3, align 8
  %92 = getelementptr inbounds nuw %struct.PLpgSQL_type, ptr %91, i32 0, i32 11
  store i64 %90, ptr %92, align 8
  %93 = load ptr, ptr %3, align 8
  %94 = getelementptr inbounds nuw %struct.PLpgSQL_type, ptr %93, i32 0, i32 1
  %95 = load i32, ptr %94, align 8
  %96 = load ptr, ptr %2, align 8
  %97 = getelementptr inbounds nuw %struct.PLpgSQL_rec, ptr %96, i32 0, i32 8
  store i32 %95, ptr %97, align 8
  store i32 0, ptr %5, align 4
  br label %98

98:                                               ; preds = %84, %29, %13
  call void @llvm.lifetime.end.p0(i64 8, ptr %4) #12
  call void @llvm.lifetime.end.p0(i64 8, ptr %3) #12
  %99 = load i32, ptr %5, align 4
  switch i32 %99, label %101 [
    i32 0, label %100
    i32 1, label %100
  ]

100:                                              ; preds = %98, %98
  ret void

101:                                              ; preds = %98
  unreachable
}