; Function Attrs: nounwind uwtable
define internal fastcc void @revalidate_rectypeid(ptr noundef captures(none) %0) unnamed_addr #0 {
  %2 = getelementptr inbounds nuw i8, ptr %0, i64 32
  %3 = load ptr, ptr %2, align 8
  %4 = getelementptr inbounds nuw i8, ptr %0, i64 40
  %5 = load i32, ptr %4, align 8
  %6 = icmp eq i32 %5, 2249
  br i1 %6, label %49, label %7

7:                                                ; preds = %1
  %8 = getelementptr inbounds nuw i8, ptr %3, i64 40
  %9 = load ptr, ptr %8, align 8
  %.not = icmp eq ptr %9, null
  br i1 %.not, label %18, label %10

10:                                               ; preds = %7
  %11 = getelementptr inbounds nuw i8, ptr %9, i64 272
  %12 = load i64, ptr %11, align 8
  %13 = getelementptr inbounds nuw i8, ptr %3, i64 48
  %14 = load i64, ptr %13, align 8
  %15 = icmp eq i64 %12, %14
  br i1 %15, label %16, label %18

16:                                               ; preds = %10
  %17 = getelementptr inbounds nuw i8, ptr %3, i64 8
  br label %.sink.split

18:                                               ; preds = %10, %7
  %19 = getelementptr inbounds nuw i8, ptr %3, i64 32
  %20 = load ptr, ptr %19, align 8
  %.not24 = icmp eq ptr %20, null
  br i1 %.not24, label %24, label %21

21:                                               ; preds = %18
  %22 = getelementptr inbounds nuw i8, ptr %3, i64 8
  %23 = getelementptr inbounds nuw i8, ptr %3, i64 28
  tail call void @typenameTypeIdAndMod(ptr noundef null, ptr noundef nonnull %20, ptr noundef nonnull %22, ptr noundef nonnull %23) #12
  br label %24

24:                                               ; preds = %21, %18
  %25 = getelementptr inbounds nuw i8, ptr %3, i64 8
  %26 = load i32, ptr %25, align 8
  %27 = tail call ptr @lookup_type_cache(i32 noundef %26, i32 noundef 4352) #12
  %28 = getelementptr inbounds nuw i8, ptr %27, i64 13
  %29 = load i8, ptr %28, align 1
  %30 = icmp eq i8 %29, 100
  br i1 %30, label %31, label %35

31:                                               ; preds = %24
  %32 = getelementptr inbounds nuw i8, ptr %27, i64 448
  %33 = load i32, ptr %32, align 8
  %34 = tail call ptr @lookup_type_cache(i32 noundef %33, i32 noundef 256) #12
  br label %35

35:                                               ; preds = %31, %24
  %.0 = phi ptr [ %34, %31 ], [ %27, %24 ]
  %36 = getelementptr inbounds nuw i8, ptr %.0, i64 264
  %37 = load ptr, ptr %36, align 8
  %38 = icmp eq ptr %37, null
  br i1 %38, label %39, label %45

39:                                               ; preds = %35
  %40 = tail call zeroext i1 @errstart_cold(i32 noundef 21, ptr noundef nonnull @.str.2) #13
  tail call void @llvm.assume(i1 %40)
  %41 = tail call i32 @errcode(i32 noundef 151027844) #12
  %42 = load i32, ptr %25, align 8
  %43 = tail call ptr @format_type_be(i32 noundef %42) #12
  %44 = tail call i32 (ptr, ...) @errmsg(ptr noundef nonnull @.str.138, ptr noundef %43) #12
  tail call void @errfinish(ptr noundef nonnull @.str.4, i32 noundef 7098, ptr noundef nonnull @__func__.revalidate_rectypeid) #12
  unreachable

45:                                               ; preds = %35
  store ptr %.0, ptr %8, align 8
  %46 = getelementptr inbounds nuw i8, ptr %.0, i64 272
  %47 = load i64, ptr %46, align 8
  %48 = getelementptr inbounds nuw i8, ptr %3, i64 48
  store i64 %47, ptr %48, align 8
  br label %.sink.split

.sink.split:                                      ; preds = %16, %45
  %.sink.in = phi ptr [ %25, %45 ], [ %17, %16 ]
  %.sink = load i32, ptr %.sink.in, align 8
  store i32 %.sink, ptr %4, align 8
  br label %49

49:                                               ; preds = %.sink.split, %1
  ret void
}